target datalayout = "e-m:e-p270:32:32-p271:32:32-p272:64:64-i64:64-i128:128-f80:128-n8:16:32:64-S128"
target triple = "x86_64-pc-linux-gnu"

%class.ZStatValue = type { ptr, ptr, i32, i32 }
%struct.ZStatSamplerData = type { i64, i64, i64 }
%"struct.Atomic::XchgImpl" = type { i8 }
%"struct.Atomic::PlatformXchg" = type { i8 }

@_ZN10ZStatValue5_baseE = hidden global i64 0, align 8
@_ZN10ZStatValue11_cpu_offsetE = hidden global i32 0, align 4
@_ZN2os16_processor_countE = external global i32, align 4

; Function Attrs: mustprogress nounwind uwtable
define linkonce_odr hidden noundef i64 @_ZNK6Atomic12PlatformXchgILm8EEclImEET_PVS3_S3_19atomic_memory_order(ptr noundef nonnull align 1 dereferenceable(1) %0, ptr noundef %1, i64 noundef %2, i32 noundef %3) #1 comdat align 2 {
  %5 = alloca ptr, align 8
  %6 = alloca ptr, align 8
  %7 = alloca i64, align 8
  %8 = alloca i32, align 4
  store ptr %0, ptr %5, align 8
  store ptr %1, ptr %6, align 8
  store i64 %2, ptr %7, align 8
  store i32 %3, ptr %8, align 4
  %9 = load i64, ptr %7, align 8
  %10 = load ptr, ptr %6, align 8
  %11 = call i64 asm sideeffect "xchgq ($2),$0", "=r,0,r,~{memory},~{dirflag},~{fpsr},~{flags}"(i64 %9, ptr %10) #5, !srcloc !29
  store i64 %11, ptr %7, align 8
  %12 = load i64, ptr %7, align 8
  ret i64 %12
}

; Function Attrs: mustprogress nounwind uwtable
define linkonce_odr hidden noundef i64 @_ZNK6Atomic8XchgImplImmvEclEPVmm19atomic_memory_order(ptr noundef nonnull align 1 dereferenceable(1) %0, ptr noundef %1, i64 noundef %2, i32 noundef %3) #1 comdat align 2 {
  %5 = alloca ptr, align 8
  %6 = alloca ptr, align 8
  %7 = alloca i64, align 8
  %8 = alloca i32, align 4
  %9 = alloca %"struct.Atomic::PlatformXchg", align 1
  store ptr %0, ptr %5, align 8
  store ptr %1, ptr %6, align 8
  store i64 %2, ptr %7, align 8
  store i32 %3, ptr %8, align 4
  %10 = load ptr, ptr %6, align 8
  %11 = load i64, ptr %7, align 8
  %12 = load i32, ptr %8, align 4
  %13 = call noundef i64 @_ZNK6Atomic12PlatformXchgILm8EEclImEET_PVS3_S3_19atomic_memory_order(ptr noundef nonnull align 1 dereferenceable(1) %9, ptr noundef %10, i64 noundef %11, i32 noundef %12)
  ret i64 %13
}

; Function Attrs: mustprogress nounwind uwtable
define linkonce_odr hidden noundef i32 @_ZN2os15processor_countEv() #1 comdat align 2 {
  %1 = load i32, ptr @_ZN2os16_processor_countE, align 4
  ret i32 %1
}

; Function Attrs: mustprogress nounwind uwtable
define linkonce_odr hidden noundef i64 @_ZN6Atomic4xchgImmEET_PVS1_T0_19atomic_memory_order(ptr noundef %0, i64 noundef %1, i32 noundef %2) #1 comdat align 2 {
  %4 = alloca ptr, align 8
  %5 = alloca i64, align 8
  %6 = alloca i32, align 4
  %7 = alloca %"struct.Atomic::XchgImpl", align 1
  store ptr %0, ptr %4, align 8
  store i64 %1, ptr %5, align 8
  store i32 %2, ptr %6, align 4
  %8 = load ptr, ptr %4, align 8
  %9 = load i64, ptr %5, align 8
  %10 = load i32, ptr %6, align 4
  %11 = call noundef i64 @_ZNK6Atomic8XchgImplImmvEclEPVmm19atomic_memory_order(ptr noundef nonnull align 1 dereferenceable(1) %7, ptr noundef %8, i64 noundef %9, i32 noundef %10)
  ret i64 %11
}

; Function Attrs: mustprogress nounwind uwtable
define linkonce_odr hidden noundef ptr @_ZNK10ZStatValue13get_cpu_localI16ZStatSamplerDataEEPT_j(ptr noundef nonnull align 8 dereferenceable(24) %0, i32 noundef %1) #1 comdat align 2 {
  %3 = alloca ptr, align 8
  %4 = alloca i32, align 4
  %5 = alloca i64, align 8
  %6 = alloca i64, align 8
  store ptr %0, ptr %3, align 8
  store i32 %1, ptr %4, align 4
  %7 = load ptr, ptr %3, align 8
  %8 = load i64, ptr @_ZN10ZStatValue5_baseE, align 8
  %9 = load i32, ptr @_ZN10ZStatValue11_cpu_offsetE, align 4
  %10 = load i32, ptr %4, align 4
  %11 = mul i32 %9, %10
  %12 = zext i32 %11 to i64
  %13 = add i64 %8, %12
  store i64 %13, ptr %5, align 8
  %14 = load i64, ptr %5, align 8
  %15 = getelementptr inbounds %class.ZStatValue, ptr %7, i32 0, i32 3
  %16 = load i32, ptr %15, align 4
  %17 = zext i32 %16 to i64
  %18 = add i64 %14, %17
  store i64 %18, ptr %6, align 8
  %19 = load i64, ptr %6, align 8
  %20 = inttoptr i64 %19 to ptr
  ret ptr %20
}

; Function Attrs: mustprogress nounwind uwtable
define linkonce_odr hidden noundef i32 @_ZN4ZCPU5countEv() #1 comdat align 2 {
  %1 = call noundef i32 @_ZN2os15processor_countEv()
  ret i32 %1
}

; Function Attrs: mustprogress nounwind uwtable
define linkonce_odr hidden void @_ZN16ZStatSamplerDataC2Ev(ptr noundef nonnull align 8 dereferenceable(24) %0) unnamed_addr #1 comdat align 2 {
  %2 = alloca ptr, align 8
  store ptr %0, ptr %2, align 8
  %3 = load ptr, ptr %2, align 8
  %4 = getelementptr inbounds %struct.ZStatSamplerData, ptr %3, i32 0, i32 0
  store i64 0, ptr %4, align 8
  %5 = getelementptr inbounds %struct.ZStatSamplerData, ptr %3, i32 0, i32 1
  store i64 0, ptr %5, align 8
  %6 = getelementptr inbounds %struct.ZStatSamplerData, ptr %3, i32 0, i32 2
  store i64 0, ptr %6, align 8
  ret void
}

; Function Attrs: mustprogress nounwind uwtable
define hidden void @_ZNK12ZStatSampler17collect_and_resetEv(ptr dead_on_unwind noalias writable sret(%struct.ZStatSamplerData) align 8 %0, ptr noundef nonnull align 8 dereferenceable(40) %1) #1 align 2 {
  %3 = alloca ptr, align 8
  %4 = alloca i32, align 4
  %5 = alloca i32, align 4
  %6 = alloca ptr, align 8
  %7 = alloca i64, align 8
  %8 = alloca i64, align 8
  %9 = alloca i64, align 8
  store ptr %1, ptr %3, align 8
  %10 = load ptr, ptr %3, align 8
  call void @_ZN16ZStatSamplerDataC2Ev(ptr noundef nonnull align 8 dereferenceable(24) %0)
  %11 = call noundef i32 @_ZN4ZCPU5countEv()
  store i32 %11, ptr %4, align 4
  store i32 0, ptr %5, align 4
  br label %12

12:                                               ; preds = %50, %2
  %13 = load i32, ptr %5, align 4
  %14 = load i32, ptr %4, align 4
  %15 = icmp ult i32 %13, %14
  br i1 %15, label %16, label %53

16:                                               ; preds = %12
  %17 = load i32, ptr %5, align 4
  %18 = call noundef ptr @_ZNK10ZStatValue13get_cpu_localI16ZStatSamplerDataEEPT_j(ptr noundef nonnull align 8 dereferenceable(24) %10, i32 noundef %17)
  store ptr %18, ptr %6, align 8
  %19 = load ptr, ptr %6, align 8
  %20 = getelementptr inbounds %struct.ZStatSamplerData, ptr %19, i32 0, i32 0
  %21 = load i64, ptr %20, align 8
  %22 = icmp ugt i64 %21, 0
  br i1 %22, label %23, label %49

23:                                               ; preds = %16
  %24 = load ptr, ptr %6, align 8
  %25 = getelementptr inbounds %struct.ZStatSamplerData, ptr %24, i32 0, i32 0
  %26 = call noundef i64 @_ZN6Atomic4xchgImmEET_PVS1_T0_19atomic_memory_order(ptr noundef %25, i64 noundef 0, i32 noundef 8)
  store i64 %26, ptr %7, align 8
  %27 = load ptr, ptr %6, align 8
  %28 = getelementptr inbounds %struct.ZStatSamplerData, ptr %27, i32 0, i32 1
  %29 = call noundef i64 @_ZN6Atomic4xchgImmEET_PVS1_T0_19atomic_memory_order(ptr noundef %28, i64 noundef 0, i32 noundef 8)
  store i64 %29, ptr %8, align 8
  %30 = load ptr, ptr %6, align 8
  %31 = getelementptr inbounds %struct.ZStatSamplerData, ptr %30, i32 0, i32 2
  %32 = call noundef i64 @_ZN6Atomic4xchgImmEET_PVS1_T0_19atomic_memory_order(ptr noundef %31, i64 noundef 0, i32 noundef 8)
  store i64 %32, ptr %9, align 8
  %33 = load i64, ptr %7, align 8
  %34 = getelementptr inbounds %struct.ZStatSamplerData, ptr %0, i32 0, i32 0
  %35 = load i64, ptr %34, align 8
  %36 = add i64 %35, %33
  store i64 %36, ptr %34, align 8
  %37 = load i64, ptr %8, align 8
  %38 = getelementptr inbounds %struct.ZStatSamplerData, ptr %0, i32 0, i32 1
  %39 = load i64, ptr %38, align 8
  %40 = add i64 %39, %37
  store i64 %40, ptr %38, align 8
  %41 = getelementptr inbounds %struct.ZStatSamplerData, ptr %0, i32 0, i32 2
  %42 = load i64, ptr %41, align 8
  %43 = load i64, ptr %9, align 8
  %44 = icmp ult i64 %42, %43
  br i1 %44, label %45, label %48

45:                                               ; preds = %23
  %46 = load i64, ptr %9, align 8
  %47 = getelementptr inbounds %struct.ZStatSamplerData, ptr %0, i32 0, i32 2
  store i64 %46, ptr %47, align 8
  br label %48

48:                                               ; preds = %45, %23
  br label %49

49:                                               ; preds = %48, %16
  br label %50

50:                                               ; preds = %49
  %51 = load i32, ptr %5, align 4
  %52 = add i32 %51, 1
  store i32 %52, ptr %5, align 4
  br label %12, !llvm.loop !6

53:                                               ; preds = %12
  ret void
}